target datalayout = "e-m:e-p270:32:32-p271:32:32-p272:64:64-i64:64-i128:128-f80:128-n8:16:32:64-S128"
target triple = "x86_64-pc-linux-gnu"

%struct.ec_group_st = type { ptr, ptr, %struct.bignum_st, %struct.bignum_st, i32, ptr, %struct.bignum_st, %struct.bignum_st, %struct.bignum_st, i32, ptr, %struct.bignum_st }
%struct.bignum_st = type { ptr, i32, i32, i32, i32 }
%struct.ec_method_st = type { ptr, ptr, ptr, ptr, ptr, ptr, ptr, ptr, ptr, ptr, ptr }

@.str = private unnamed_addr constant [122 x i8] c"generated/home/dtcxzyw/WorkSpace/Projects/compilers/llvm-opt-benchmark/bench/libquic/libquic/boringssl/crypto/ec/simple.c\00", align 1

; Function Attrs: nounwind uwtable
define hidden i32 @ec_GFp_simple_group_set_curve(ptr noundef %0, ptr noundef %1, ptr noundef %2, ptr noundef %3, ptr noundef %4) #0 {
  %6 = alloca i32, align 4
  %7 = alloca ptr, align 8
  %8 = alloca ptr, align 8
  %9 = alloca ptr, align 8
  %10 = alloca ptr, align 8
  %11 = alloca ptr, align 8
  %12 = alloca i32, align 4
  %13 = alloca ptr, align 8
  %14 = alloca ptr, align 8
  %15 = alloca i32, align 4
  store ptr %0, ptr %7, align 8, !tbaa !6
  store ptr %1, ptr %8, align 8, !tbaa !19
  store ptr %2, ptr %9, align 8, !tbaa !19
  store ptr %3, ptr %10, align 8, !tbaa !19
  store ptr %4, ptr %11, align 8, !tbaa !21
  call void @llvm.lifetime.start.p0(i64 4, ptr %12) #6
  store i32 0, ptr %12, align 4, !tbaa !23
  call void @llvm.lifetime.start.p0(i64 8, ptr %13) #6
  store ptr null, ptr %13, align 8, !tbaa !21
  call void @llvm.lifetime.start.p0(i64 8, ptr %14) #6
  %16 = load ptr, ptr %8, align 8, !tbaa !19
  %17 = call i32 @BN_num_bits(ptr noundef %16)
  %18 = icmp ule i32 %17, 2
  br i1 %18, label %23, label %19

19:                                               ; preds = %5
  %20 = load ptr, ptr %8, align 8, !tbaa !19
  %21 = call i32 @BN_is_odd(ptr noundef %20)
  %22 = icmp ne i32 %21, 0
  br i1 %22, label %24, label %23

23:                                               ; preds = %19, %5
  call void @ERR_put_error(i32 noundef 15, i32 noundef 0, i32 noundef 110, ptr noundef @.str, i32 noundef 127)
  store i32 0, ptr %6, align 4
  store i32 1, ptr %15, align 4
  br label %166

24:                                               ; preds = %19
  %25 = load ptr, ptr %11, align 8, !tbaa !21
  %26 = icmp eq ptr %25, null
  br i1 %26, label %27, label %33

27:                                               ; preds = %24
  %28 = call ptr @BN_CTX_new()
  store ptr %28, ptr %13, align 8, !tbaa !21
  store ptr %28, ptr %11, align 8, !tbaa !21
  %29 = load ptr, ptr %11, align 8, !tbaa !21
  %30 = icmp eq ptr %29, null
  br i1 %30, label %31, label %32

31:                                               ; preds = %27
  store i32 0, ptr %6, align 4
  store i32 1, ptr %15, align 4
  br label %166

32:                                               ; preds = %27
  br label %33

33:                                               ; preds = %32, %24
  %34 = load ptr, ptr %11, align 8, !tbaa !21
  call void @BN_CTX_start(ptr noundef %34)
  %35 = load ptr, ptr %11, align 8, !tbaa !21
  %36 = call ptr @BN_CTX_get(ptr noundef %35)
  store ptr %36, ptr %14, align 8, !tbaa !19
  %37 = load ptr, ptr %14, align 8, !tbaa !19
  %38 = icmp eq ptr %37, null
  br i1 %38, label %39, label %40

39:                                               ; preds = %33
  br label %162

40:                                               ; preds = %33
  %41 = load ptr, ptr %7, align 8, !tbaa !6
  %42 = getelementptr inbounds nuw %struct.ec_group_st, ptr %41, i32 0, i32 6
  %43 = load ptr, ptr %8, align 8, !tbaa !19
  %44 = call ptr @BN_copy(ptr noundef %42, ptr noundef %43)
  %45 = icmp ne ptr %44, null
  br i1 %45, label %47, label %46

46:                                               ; preds = %40
  br label %162

47:                                               ; preds = %40
  %48 = load ptr, ptr %7, align 8, !tbaa !6
  %49 = getelementptr inbounds nuw %struct.ec_group_st, ptr %48, i32 0, i32 6
  call void @BN_set_negative(ptr noundef %49, i32 noundef 0)
  %50 = load ptr, ptr %14, align 8, !tbaa !19
  %51 = load ptr, ptr %9, align 8, !tbaa !19
  %52 = load ptr, ptr %8, align 8, !tbaa !19
  %53 = load ptr, ptr %11, align 8, !tbaa !21
  %54 = call i32 @BN_nnmod(ptr noundef %50, ptr noundef %51, ptr noundef %52, ptr noundef %53)
  %55 = icmp ne i32 %54, 0
  br i1 %55, label %57, label %56

56:                                               ; preds = %47
  br label %162

57:                                               ; preds = %47
  %58 = load ptr, ptr %7, align 8, !tbaa !6
  %59 = getelementptr inbounds nuw %struct.ec_group_st, ptr %58, i32 0, i32 0
  %60 = load ptr, ptr %59, align 8, !tbaa !24
  %61 = getelementptr inbounds nuw %struct.ec_method_st, ptr %60, i32 0, i32 9
  %62 = load ptr, ptr %61, align 8, !tbaa !25
  %63 = icmp ne ptr %62, null
  br i1 %63, label %64, label %79

64:                                               ; preds = %57
  %65 = load ptr, ptr %7, align 8, !tbaa !6
  %66 = getelementptr inbounds nuw %struct.ec_group_st, ptr %65, i32 0, i32 0
  %67 = load ptr, ptr %66, align 8, !tbaa !24
  %68 = getelementptr inbounds nuw %struct.ec_method_st, ptr %67, i32 0, i32 9
  %69 = load ptr, ptr %68, align 8, !tbaa !25
  %70 = load ptr, ptr %7, align 8, !tbaa !6
  %71 = load ptr, ptr %7, align 8, !tbaa !6
  %72 = getelementptr inbounds nuw %struct.ec_group_st, ptr %71, i32 0, i32 7
  %73 = load ptr, ptr %14, align 8, !tbaa !19
  %74 = load ptr, ptr %11, align 8, !tbaa !21
  %75 = call i32 %69(ptr noundef %70, ptr noundef %72, ptr noundef %73, ptr noundef %74)
  %76 = icmp ne i32 %75, 0
  br i1 %76, label %78, label %77

77:                                               ; preds = %64
  br label %162

78:                                               ; preds = %64
  br label %87

79:                                               ; preds = %57
  %80 = load ptr, ptr %7, align 8, !tbaa !6
  %81 = getelementptr inbounds nuw %struct.ec_group_st, ptr %80, i32 0, i32 7
  %82 = load ptr, ptr %14, align 8, !tbaa !19
  %83 = call ptr @BN_copy(ptr noundef %81, ptr noundef %82)
  %84 = icmp ne ptr %83, null
  br i1 %84, label %86, label %85

85:                                               ; preds = %79
  br label %162

86:                                               ; preds = %79
  br label %87

87:                                               ; preds = %86, %78
  %88 = load ptr, ptr %7, align 8, !tbaa !6
  %89 = getelementptr inbounds nuw %struct.ec_group_st, ptr %88, i32 0, i32 8
  %90 = load ptr, ptr %10, align 8, !tbaa !19
  %91 = load ptr, ptr %8, align 8, !tbaa !19
  %92 = load ptr, ptr %11, align 8, !tbaa !21
  %93 = call i32 @BN_nnmod(ptr noundef %89, ptr noundef %90, ptr noundef %91, ptr noundef %92)
  %94 = icmp ne i32 %93, 0
  br i1 %94, label %96, label %95

95:                                               ; preds = %87
  br label %162

96:                                               ; preds = %87
  %97 = load ptr, ptr %7, align 8, !tbaa !6
  %98 = getelementptr inbounds nuw %struct.ec_group_st, ptr %97, i32 0, i32 0
  %99 = load ptr, ptr %98, align 8, !tbaa !24
  %100 = getelementptr inbounds nuw %struct.ec_method_st, ptr %99, i32 0, i32 9
  %101 = load ptr, ptr %100, align 8, !tbaa !25
  %102 = icmp ne ptr %101, null
  br i1 %102, label %103, label %118

103:                                              ; preds = %96
  %104 = load ptr, ptr %7, align 8, !tbaa !6
  %105 = getelementptr inbounds nuw %struct.ec_group_st, ptr %104, i32 0, i32 0
  %106 = load ptr, ptr %105, align 8, !tbaa !24
  %107 = getelementptr inbounds nuw %struct.ec_method_st, ptr %106, i32 0, i32 9
  %108 = load ptr, ptr %107, align 8, !tbaa !25
  %109 = load ptr, ptr %7, align 8, !tbaa !6
  %110 = load ptr, ptr %7, align 8, !tbaa !6
  %111 = getelementptr inbounds nuw %struct.ec_group_st, ptr %110, i32 0, i32 8
  %112 = load ptr, ptr %7, align 8, !tbaa !6
  %113 = getelementptr inbounds nuw %struct.ec_group_st, ptr %112, i32 0, i32 8
  %114 = load ptr, ptr %11, align 8, !tbaa !21
  %115 = call i32 %108(ptr noundef %109, ptr noundef %111, ptr noundef %113, ptr noundef %114)
  %116 = icmp ne i32 %115, 0
  br i1 %116, label %118, label %117

117:                                              ; preds = %103
  br label %162

118:                                              ; preds = %103, %96
  %119 = load ptr, ptr %14, align 8, !tbaa !19
  %120 = call i32 @BN_add_word(ptr noundef %119, i64 noundef 3)
  %121 = icmp ne i32 %120, 0
  br i1 %121, label %123, label %122

122:                                              ; preds = %118
  br label %162

123:                                              ; preds = %118
  %124 = load ptr, ptr %14, align 8, !tbaa !19
  %125 = load ptr, ptr %7, align 8, !tbaa !6
  %126 = getelementptr inbounds nuw %struct.ec_group_st, ptr %125, i32 0, i32 6
  %127 = call i32 @BN_cmp(ptr noundef %124, ptr noundef %126)
  %128 = icmp eq i32 0, %127
  %129 = zext i1 %128 to i32
  %130 = load ptr, ptr %7, align 8, !tbaa !6
  %131 = getelementptr inbounds nuw %struct.ec_group_st, ptr %130, i32 0, i32 9
  store i32 %129, ptr %131, align 8, !tbaa !11
  %132 = load ptr, ptr %7, align 8, !tbaa !6
  %133 = getelementptr inbounds nuw %struct.ec_group_st, ptr %132, i32 0, i32 0
  %134 = load ptr, ptr %133, align 8, !tbaa !24
  %135 = getelementptr inbounds nuw %struct.ec_method_st, ptr %134, i32 0, i32 9
  %136 = load ptr, ptr %135, align 8, !tbaa !25
  %137 = icmp ne ptr %136, null
  br i1 %137, label %138, label %153

138:                                              ; preds = %123
  %139 = load ptr, ptr %7, align 8, !tbaa !6
  %140 = getelementptr inbounds nuw %struct.ec_group_st, ptr %139, i32 0, i32 0
  %141 = load ptr, ptr %140, align 8, !tbaa !24
  %142 = getelementptr inbounds nuw %struct.ec_method_st, ptr %141, i32 0, i32 9
  %143 = load ptr, ptr %142, align 8, !tbaa !25
  %144 = load ptr, ptr %7, align 8, !tbaa !6
  %145 = load ptr, ptr %7, align 8, !tbaa !6
  %146 = getelementptr inbounds nuw %struct.ec_group_st, ptr %145, i32 0, i32 11
  %147 = call ptr @BN_value_one()
  %148 = load ptr, ptr %11, align 8, !tbaa !21
  %149 = call i32 %143(ptr noundef %144, ptr noundef %146, ptr noundef %147, ptr noundef %148)
  %150 = icmp ne i32 %149, 0
  br i1 %150, label %152, label %151

151:                                              ; preds = %138
  br label %162

152:                                              ; preds = %138
  br label %161

153:                                              ; preds = %123
  %154 = load ptr, ptr %7, align 8, !tbaa !6
  %155 = getelementptr inbounds nuw %struct.ec_group_st, ptr %154, i32 0, i32 11
  %156 = call ptr @BN_value_one()
  %157 = call ptr @BN_copy(ptr noundef %155, ptr noundef %156)
  %158 = icmp ne ptr %157, null
  br i1 %158, label %160, label %159

159:                                              ; preds = %153
  br label %162

160:                                              ; preds = %153
  br label %161

161:                                              ; preds = %160, %152
  store i32 1, ptr %12, align 4, !tbaa !23
  br label %162

162:                                              ; preds = %161, %159, %151, %122, %117, %95, %85, %77, %56, %46, %39
  %163 = load ptr, ptr %11, align 8, !tbaa !21
  call void @BN_CTX_end(ptr noundef %163)
  %164 = load ptr, ptr %13, align 8, !tbaa !21
  call void @BN_CTX_free(ptr noundef %164)
  %165 = load i32, ptr %12, align 4, !tbaa !23
  store i32 %165, ptr %6, align 4
  store i32 1, ptr %15, align 4
  br label %166

166:                                              ; preds = %162, %31, %23
  call void @llvm.lifetime.end.p0(i64 8, ptr %14) #6
  call void @llvm.lifetime.end.p0(i64 8, ptr %13) #6
  call void @llvm.lifetime.end.p0(i64 4, ptr %12) #6
  %167 = load i32, ptr %6, align 4
  ret i32 %167
}