; Function Attrs: nounwind uwtable
define hidden range(i32 0, 2) i32 @ec_GFp_simple_group_set_curve(ptr noundef %0, ptr noundef %1, ptr noundef %2, ptr noundef %3, ptr noundef %4) local_unnamed_addr #0 {
  %6 = tail call i32 @BN_num_bits(ptr noundef %1) #5
  %7 = icmp ult i32 %6, 3
  br i1 %7, label %10, label %8

8:                                                ; preds = %5
  %9 = tail call i32 @BN_is_odd(ptr noundef %1) #5
  %.not = icmp eq i32 %9, 0
  br i1 %.not, label %10, label %11

10:                                               ; preds = %8, %5
  tail call void @ERR_put_error(i32 noundef 15, i32 noundef 0, i32 noundef 110, ptr noundef nonnull @.str, i32 noundef 127) #5
  br label %60

11:                                               ; preds = %8
  %12 = icmp eq ptr %4, null
  br i1 %12, label %13, label %16

13:                                               ; preds = %11
  %14 = tail call ptr @BN_CTX_new() #5
  %15 = icmp eq ptr %14, null
  br i1 %15, label %60, label %16

16:                                               ; preds = %13, %11
  %.047 = phi ptr [ %14, %13 ], [ %4, %11 ]
  %.045 = phi ptr [ %14, %13 ], [ null, %11 ]
  tail call void @BN_CTX_start(ptr noundef nonnull %.047) #5
  %17 = tail call ptr @BN_CTX_get(ptr noundef nonnull %.047) #5
  %18 = icmp eq ptr %17, null
  br i1 %18, label %59, label %19

19:                                               ; preds = %16
  %20 = getelementptr inbounds nuw i8, ptr %0, i64 80
  %21 = tail call ptr @BN_copy(ptr noundef nonnull %20, ptr noundef %1) #5
  %.not54 = icmp eq ptr %21, null
  br i1 %.not54, label %59, label %22

22:                                               ; preds = %19
  tail call void @BN_set_negative(ptr noundef nonnull %20, i32 noundef 0) #5
  %23 = tail call i32 @BN_nnmod(ptr noundef nonnull %17, ptr noundef %2, ptr noundef %1, ptr noundef nonnull %.047) #5
  %.not55 = icmp eq i32 %23, 0
  br i1 %.not55, label %59, label %24

24:                                               ; preds = %22
  %25 = load ptr, ptr %0, align 8, !tbaa !17
  %26 = getelementptr inbounds nuw i8, ptr %25, i64 72
  %27 = load ptr, ptr %26, align 8, !tbaa !18
  %.not56 = icmp eq ptr %27, null
  %28 = getelementptr inbounds nuw i8, ptr %0, i64 104
  br i1 %.not56, label %31, label %29

29:                                               ; preds = %24
  %30 = tail call i32 %27(ptr noundef nonnull %0, ptr noundef nonnull %28, ptr noundef nonnull %17, ptr noundef nonnull %.047) #5
  %.not58 = icmp eq i32 %30, 0
  br i1 %.not58, label %59, label %33

31:                                               ; preds = %24
  %32 = tail call ptr @BN_copy(ptr noundef nonnull %28, ptr noundef nonnull %17) #5
  %.not57 = icmp eq ptr %32, null
  br i1 %.not57, label %59, label %33

33:                                               ; preds = %31, %29
  %34 = getelementptr inbounds nuw i8, ptr %0, i64 128
  %35 = tail call i32 @BN_nnmod(ptr noundef nonnull %34, ptr noundef %3, ptr noundef %1, ptr noundef nonnull %.047) #5
  %.not59 = icmp eq i32 %35, 0
  br i1 %.not59, label %59, label %36

36:                                               ; preds = %33
  %37 = load ptr, ptr %0, align 8, !tbaa !17
  %38 = getelementptr inbounds nuw i8, ptr %37, i64 72
  %39 = load ptr, ptr %38, align 8, !tbaa !18
  %.not60 = icmp eq ptr %39, null
  br i1 %.not60, label %42, label %40

40:                                               ; preds = %36
  %41 = tail call i32 %39(ptr noundef nonnull %0, ptr noundef nonnull %34, ptr noundef nonnull %34, ptr noundef nonnull %.047) #5
  %.not61 = icmp eq i32 %41, 0
  br i1 %.not61, label %59, label %42

42:                                               ; preds = %40, %36
  %43 = tail call i32 @BN_add_word(ptr noundef nonnull %17, i64 noundef 3) #5
  %.not62 = icmp eq i32 %43, 0
  br i1 %.not62, label %59, label %44

44:                                               ; preds = %42
  %45 = tail call i32 @BN_cmp(ptr noundef nonnull %17, ptr noundef nonnull %20) #5
  %46 = icmp eq i32 %45, 0
  %47 = zext i1 %46 to i32
  %48 = getelementptr inbounds nuw i8, ptr %0, i64 152
  store i32 %47, ptr %48, align 8, !tbaa !6
  %49 = load ptr, ptr %0, align 8, !tbaa !17
  %50 = getelementptr inbounds nuw i8, ptr %49, i64 72
  %51 = load ptr, ptr %50, align 8, !tbaa !18
  %.not63 = icmp eq ptr %51, null
  %52 = getelementptr inbounds nuw i8, ptr %0, i64 168
  %53 = tail call ptr @BN_value_one() #5
  br i1 %.not63, label %56, label %54

54:                                               ; preds = %44
  %55 = tail call i32 %51(ptr noundef nonnull %0, ptr noundef nonnull %52, ptr noundef %53, ptr noundef nonnull %.047) #5
  %.not65 = icmp eq i32 %55, 0
  br i1 %.not65, label %59, label %58

56:                                               ; preds = %44
  %57 = tail call ptr @BN_copy(ptr noundef nonnull %52, ptr noundef %53) #5
  %.not64 = icmp eq ptr %57, null
  br i1 %.not64, label %59, label %58

58:                                               ; preds = %56, %54
  br label %59

59:                                               ; preds = %56, %54, %42, %40, %33, %31, %29, %22, %19, %16, %58
  %.046 = phi i32 [ 0, %16 ], [ 1, %58 ], [ 0, %54 ], [ 0, %56 ], [ 0, %42 ], [ 0, %40 ], [ 0, %33 ], [ 0, %29 ], [ 0, %31 ], [ 0, %22 ], [ 0, %19 ]
  tail call void @BN_CTX_end(ptr noundef nonnull %.047) #5
  tail call void @BN_CTX_free(ptr noundef %.045) #5
  br label %60

60:                                               ; preds = %13, %59, %10
  %.0 = phi i32 [ 0, %10 ], [ %.046, %59 ], [ 0, %13 ]
  ret i32 %.0
}